target datalayout = "e-m:e-p270:32:32-p271:32:32-p272:64:64-i64:64-i128:128-f80:128-n8:16:32:64-S128"
target triple = "x86_64-unknown-linux-gnu"

%"class.std::__shared_count" = type { ptr }
%"class.std::shared_ptr.33" = type { %"class.std::__shared_ptr.34" }
%"class.std::__shared_ptr.34" = type { ptr, %"class.std::__shared_count" }
%"class.arrow::compute::InputType" = type { i32, %"class.std::shared_ptr.72", %"class.std::shared_ptr.33" }
%"class.std::shared_ptr.72" = type { %"class.std::__shared_ptr.73" }
%"class.std::__shared_ptr.73" = type { ptr, %"class.std::__shared_count" }
%"struct.std::hash" = type { i8 }
%"struct.std::hash.217" = type { i8 }

; Function Attrs: mustprogress nounwind uwtable
define linkonce_odr noundef ptr @_ZNKSt12__shared_ptrIN5arrow8DataTypeELN9__gnu_cxx12_Lock_policyE2EE3getEv(ptr noundef nonnull align 8 dereferenceable(16) %this) #2 comdat align 2 {
entry:
  %this.addr = alloca ptr, align 8
  store ptr %this, ptr %this.addr, align 8
  %this1 = load ptr, ptr %this.addr, align 8
  %_M_ptr = getelementptr inbounds %"class.std::__shared_ptr.73", ptr %this1, i32 0, i32 0
  %0 = load ptr, ptr %_M_ptr, align 8
  ret ptr %0
}

; Function Attrs: mustprogress nounwind uwtable
define linkonce_odr noundef i64 @_ZNKSt4hashImEclEm(ptr noundef nonnull align 1 dereferenceable(1) %this, i64 noundef %__val) #2 comdat align 2 {
entry:
  %this.addr = alloca ptr, align 8
  %__val.addr = alloca i64, align 8
  store ptr %this, ptr %this.addr, align 8
  store i64 %__val, ptr %__val.addr, align 8
  %0 = load i64, ptr %__val.addr, align 8
  ret i64 %0
}

; Function Attrs: mustprogress nounwind uwtable
define linkonce_odr noundef ptr @_ZNKSt19__shared_ptr_accessIN5arrow8DataTypeELN9__gnu_cxx12_Lock_policyE2ELb0ELb0EE6_M_getEv(ptr noundef nonnull align 1 dereferenceable(1) %this) #2 comdat align 2 {
entry:
  %this.addr = alloca ptr, align 8
  store ptr %this, ptr %this.addr, align 8
  %this1 = load ptr, ptr %this.addr, align 8
  %call = call noundef ptr @_ZNKSt12__shared_ptrIN5arrow8DataTypeELN9__gnu_cxx12_Lock_policyE2EE3getEv(ptr noundef nonnull align 8 dereferenceable(16) %this1) #12
  ret ptr %call
}

; Function Attrs: mustprogress nounwind uwtable
define linkonce_odr void @_ZN5arrow8internal6detail17hash_combine_implImEEvRT_S3_(ptr noundef nonnull align 8 dereferenceable(8) %seed, i64 noundef %value) #2 comdat {
entry:
  %seed.addr = alloca ptr, align 8
  %value.addr = alloca i64, align 8
  store ptr %seed, ptr %seed.addr, align 8
  store i64 %value, ptr %value.addr, align 8
  %0 = load i64, ptr %value.addr, align 8
  %add = add i64 %0, 2654435769
  %1 = load ptr, ptr %seed.addr, align 8
  %2 = load i64, ptr %1, align 8
  %shl = shl i64 %2, 6
  %add1 = add i64 %add, %shl
  %3 = load ptr, ptr %seed.addr, align 8
  %4 = load i64, ptr %3, align 8
  %shr = lshr i64 %4, 2
  %add2 = add i64 %add1, %shr
  %5 = load ptr, ptr %seed.addr, align 8
  %6 = load i64, ptr %5, align 8
  %xor = xor i64 %6, %add2
  store i64 %xor, ptr %5, align 8
  ret void
}

; Function Attrs: mustprogress nounwind uwtable
define linkonce_odr noundef i64 @_ZNKSt4hashIiEclEi(ptr noundef nonnull align 1 dereferenceable(1) %this, i32 noundef %__val) #2 comdat align 2 {
entry:
  %this.addr = alloca ptr, align 8
  %__val.addr = alloca i32, align 4
  store ptr %this, ptr %this.addr, align 8
  store i32 %__val, ptr %__val.addr, align 4
  %0 = load i32, ptr %__val.addr, align 4
  %conv = sext i32 %0 to i64
  ret i64 %conv
}

; Function Attrs: mustprogress nounwind uwtable
define linkonce_odr void @_ZN5arrow8internal12hash_combineImEEvRmRKT_(ptr noundef nonnull align 8 dereferenceable(8) %seed, ptr noundef nonnull align 8 dereferenceable(8) %v) #2 comdat {
entry:
  %seed.addr = alloca ptr, align 8
  %v.addr = alloca ptr, align 8
  %hasher = alloca %"struct.std::hash.217", align 1
  store ptr %seed, ptr %seed.addr, align 8
  store ptr %v, ptr %v.addr, align 8
  %0 = load ptr, ptr %seed.addr, align 8
  %1 = load ptr, ptr %v.addr, align 8
  %2 = load i64, ptr %1, align 8
  %call = call noundef i64 @_ZNKSt4hashImEclEm(ptr noundef nonnull align 1 dereferenceable(1) %hasher, i64 noundef %2) #12
  call void @_ZN5arrow8internal6detail17hash_combine_implImEEvRT_S3_(ptr noundef nonnull align 8 dereferenceable(8) %0, i64 noundef %call)
  ret void
}

; Function Attrs: mustprogress nounwind uwtable
define linkonce_odr noundef ptr @_ZNKSt19__shared_ptr_accessIN5arrow8DataTypeELN9__gnu_cxx12_Lock_policyE2ELb0ELb0EEptEv(ptr noundef nonnull align 1 dereferenceable(1) %this) #2 comdat align 2 {
entry:
  %this.addr = alloca ptr, align 8
  store ptr %this, ptr %this.addr, align 8
  %this1 = load ptr, ptr %this.addr, align 8
  %call = call noundef ptr @_ZNKSt19__shared_ptr_accessIN5arrow8DataTypeELN9__gnu_cxx12_Lock_policyE2ELb0ELb0EE6_M_getEv(ptr noundef nonnull align 1 dereferenceable(1) %this1) #12
  ret ptr %call
}

; Function Attrs: mustprogress uwtable
define linkonce_odr void @_ZN5arrow8internal12hash_combineIiEEvRmRKT_(ptr noundef nonnull align 8 dereferenceable(8) %seed, ptr noundef nonnull align 4 dereferenceable(4) %v) #0 comdat {
entry:
  %seed.addr = alloca ptr, align 8
  %v.addr = alloca ptr, align 8
  %hasher = alloca %"struct.std::hash", align 1
  store ptr %seed, ptr %seed.addr, align 8
  store ptr %v, ptr %v.addr, align 8
  %0 = load ptr, ptr %seed.addr, align 8
  %1 = load ptr, ptr %v.addr, align 8
  %2 = load i32, ptr %1, align 4
  %call = call noundef i64 @_ZNKSt4hashIiEclEi(ptr noundef nonnull align 1 dereferenceable(1) %hasher, i32 noundef %2) #12
  call void @_ZN5arrow8internal6detail17hash_combine_implImEEvRT_S3_(ptr noundef nonnull align 8 dereferenceable(8) %0, i64 noundef %call)
  ret void
}

; Function Attrs: mustprogress uwtable
define noundef i64 @_ZNK5arrow7compute9InputType4HashEv(ptr noundef nonnull align 8 dereferenceable(40) %this) #0 align 2 {
entry:
  %this.addr = alloca ptr, align 8
  %result = alloca i64, align 8
  %ref.tmp = alloca i32, align 4
  %ref.tmp3 = alloca i64, align 8
  store ptr %this, ptr %this.addr, align 8
  %this1 = load ptr, ptr %this.addr, align 8
  store i64 0, ptr %result, align 8
  %kind_ = getelementptr inbounds %"class.arrow::compute::InputType", ptr %this1, i32 0, i32 0
  %0 = load i32, ptr %kind_, align 8
  store i32 %0, ptr %ref.tmp, align 4
  call void @_ZN5arrow8internal12hash_combineIiEEvRmRKT_(ptr noundef nonnull align 8 dereferenceable(8) %result, ptr noundef nonnull align 4 dereferenceable(4) %ref.tmp)
  %kind_2 = getelementptr inbounds %"class.arrow::compute::InputType", ptr %this1, i32 0, i32 0
  %1 = load i32, ptr %kind_2, align 8
  switch i32 %1, label %sw.default [
    i32 1, label %sw.bb
  ]

sw.bb:                                            ; preds = %entry
  %type_ = getelementptr inbounds %"class.arrow::compute::InputType", ptr %this1, i32 0, i32 1
  %call = call noundef ptr @_ZNKSt19__shared_ptr_accessIN5arrow8DataTypeELN9__gnu_cxx12_Lock_policyE2ELb0ELb0EEptEv(ptr noundef nonnull align 1 dereferenceable(1) %type_) #12
  %call4 = call noundef i64 @_ZNK5arrow8DataType4HashEv(ptr noundef nonnull align 8 dereferenceable(72) %call)
  store i64 %call4, ptr %ref.tmp3, align 8
  call void @_ZN5arrow8internal12hash_combineImEEvRmRKT_(ptr noundef nonnull align 8 dereferenceable(8) %result, ptr noundef nonnull align 8 dereferenceable(8) %ref.tmp3)
  br label %sw.epilog

sw.default:                                       ; preds = %entry
  br label %sw.epilog

sw.epilog:                                        ; preds = %sw.default, %sw.bb
  %2 = load i64, ptr %result, align 8
  ret i64 %2
}