; Function Attrs: mustprogress uwtable
define noundef i64 @_ZNK5arrow7compute9InputType4HashEv(ptr nocapture noundef nonnull readonly align 8 dereferenceable(40) %this) local_unnamed_addr #0 align 2 {
entry:
  %0 = load i32, ptr %this, align 8
  %conv.i.i = sext i32 %0 to i64
  %add.i.i = add nsw i64 %conv.i.i, 2654435769
  %cond = icmp eq i32 %0, 1
  br i1 %cond, label %sw.bb, label %sw.epilog

sw.bb:                                            ; preds = %entry
  %type_ = getelementptr inbounds i8, ptr %this, i64 8
  %1 = load ptr, ptr %type_, align 8
  %call4 = tail call noundef i64 @_ZNK5arrow8DataType4HashEv(ptr noundef nonnull align 8 dereferenceable(72) %1)
  %add2.i.i5 = add i64 %call4, 173201933991
  %xor.i.i6 = xor i64 %add2.i.i5, %add.i.i
  br label %sw.epilog

sw.epilog:                                        ; preds = %entry, %sw.bb
  %result.0 = phi i64 [ %xor.i.i6, %sw.bb ], [ %add.i.i, %entry ]
  ret i64 %result.0
}